target datalayout = "e-m:e-p270:32:32-p271:32:32-p272:64:64-i64:64-i128:128-f80:128-n8:16:32:64-S128"
target triple = "x86_64-pc-linux-gnu"

%struct.quic_conn_id_st = type { i8, [20 x i8] }

; Function Attrs: nounwind uwtable
define i32 @ossl_quic_wire_get_pkt_hdr_dst_conn_id(ptr noundef %0, i64 noundef %1, i64 noundef %2, ptr noundef %3) #0 {
  %5 = alloca i32, align 4
  %6 = alloca ptr, align 8
  %7 = alloca i64, align 8
  %8 = alloca i64, align 8
  %9 = alloca ptr, align 8
  %10 = alloca i8, align 1
  %11 = alloca i64, align 8
  %12 = alloca i32, align 4
  store ptr %0, ptr %6, align 8, !tbaa !10
  store i64 %1, ptr %7, align 8, !tbaa !14
  store i64 %2, ptr %8, align 8, !tbaa !14
  store ptr %3, ptr %9, align 8, !tbaa !63
  call void @llvm.lifetime.start.p0(i64 1, ptr %10) #7
  call void @llvm.lifetime.start.p0(i64 8, ptr %11) #7
  %13 = load i64, ptr %7, align 8, !tbaa !14
  %14 = icmp ult i64 %13, 7
  br i1 %14, label %18, label %15

15:                                               ; preds = %4
  %16 = load i64, ptr %8, align 8, !tbaa !14
  %17 = icmp ugt i64 %16, 20
  br i1 %17, label %18, label %19

18:                                               ; preds = %15, %4
  store i32 0, ptr %5, align 4
  store i32 1, ptr %12, align 4
  br label %104

19:                                               ; preds = %15
  %20 = load ptr, ptr %6, align 8, !tbaa !10
  %21 = getelementptr inbounds i8, ptr %20, i64 0
  %22 = load i8, ptr %21, align 1, !tbaa !31
  store i8 %22, ptr %10, align 1, !tbaa !31
  %23 = load i8, ptr %10, align 1, !tbaa !31
  %24 = zext i8 %23 to i32
  %25 = and i32 %24, 128
  %26 = icmp ne i32 %25, 0
  br i1 %26, label %27, label %81

27:                                               ; preds = %19
  %28 = load ptr, ptr %6, align 8, !tbaa !10
  %29 = getelementptr inbounds i8, ptr %28, i64 1
  %30 = load i8, ptr %29, align 1, !tbaa !31
  %31 = zext i8 %30 to i32
  %32 = icmp ne i32 %31, 0
  br i1 %32, label %51, label %33

33:                                               ; preds = %27
  %34 = load ptr, ptr %6, align 8, !tbaa !10
  %35 = getelementptr inbounds i8, ptr %34, i64 2
  %36 = load i8, ptr %35, align 1, !tbaa !31
  %37 = zext i8 %36 to i32
  %38 = icmp ne i32 %37, 0
  br i1 %38, label %51, label %39

39:                                               ; preds = %33
  %40 = load ptr, ptr %6, align 8, !tbaa !10
  %41 = getelementptr inbounds i8, ptr %40, i64 3
  %42 = load i8, ptr %41, align 1, !tbaa !31
  %43 = zext i8 %42 to i32
  %44 = icmp ne i32 %43, 0
  br i1 %44, label %51, label %45

45:                                               ; preds = %39
  %46 = load ptr, ptr %6, align 8, !tbaa !10
  %47 = getelementptr inbounds i8, ptr %46, i64 4
  %48 = load i8, ptr %47, align 1, !tbaa !31
  %49 = zext i8 %48 to i32
  %50 = icmp ne i32 %49, 0
  br i1 %50, label %51, label %57

51:                                               ; preds = %45, %39, %33, %27
  %52 = load i8, ptr %10, align 1, !tbaa !31
  %53 = zext i8 %52 to i32
  %54 = and i32 %53, 64
  %55 = icmp eq i32 %54, 0
  br i1 %55, label %56, label %57

56:                                               ; preds = %51
  store i32 0, ptr %5, align 4
  store i32 1, ptr %12, align 4
  br label %104

57:                                               ; preds = %51, %45
  %58 = load ptr, ptr %6, align 8, !tbaa !10
  %59 = getelementptr inbounds i8, ptr %58, i64 5
  %60 = load i8, ptr %59, align 1, !tbaa !31
  %61 = zext i8 %60 to i64
  store i64 %61, ptr %11, align 8, !tbaa !14
  %62 = load i64, ptr %11, align 8, !tbaa !14
  %63 = icmp ugt i64 %62, 20
  br i1 %63, label %69, label %64

64:                                               ; preds = %57
  %65 = load i64, ptr %7, align 8, !tbaa !14
  %66 = load i64, ptr %11, align 8, !tbaa !14
  %67 = add i64 7, %66
  %68 = icmp ult i64 %65, %67
  br i1 %68, label %69, label %70

69:                                               ; preds = %64, %57
  store i32 0, ptr %5, align 4
  store i32 1, ptr %12, align 4
  br label %104

70:                                               ; preds = %64
  %71 = load i64, ptr %11, align 8, !tbaa !14
  %72 = trunc i64 %71 to i8
  %73 = load ptr, ptr %9, align 8, !tbaa !63
  %74 = getelementptr inbounds nuw %struct.quic_conn_id_st, ptr %73, i32 0, i32 0
  store i8 %72, ptr %74, align 1, !tbaa !65
  %75 = load ptr, ptr %9, align 8, !tbaa !63
  %76 = getelementptr inbounds nuw %struct.quic_conn_id_st, ptr %75, i32 0, i32 1
  %77 = getelementptr inbounds [20 x i8], ptr %76, i64 0, i64 0
  %78 = load ptr, ptr %6, align 8, !tbaa !10
  %79 = getelementptr inbounds i8, ptr %78, i64 6
  %80 = load i64, ptr %11, align 8, !tbaa !14
  call void @llvm.memcpy.p0.p0.i64(ptr align 1 %77, ptr align 1 %79, i64 %80, i1 false)
  store i32 1, ptr %5, align 4
  store i32 1, ptr %12, align 4
  br label %104

81:                                               ; preds = %19
  %82 = load i8, ptr %10, align 1, !tbaa !31
  %83 = zext i8 %82 to i32
  %84 = and i32 %83, 64
  %85 = icmp eq i32 %84, 0
  br i1 %85, label %86, label %87

86:                                               ; preds = %81
  store i32 0, ptr %5, align 4
  store i32 1, ptr %12, align 4
  br label %104

87:                                               ; preds = %81
  %88 = load i64, ptr %7, align 8, !tbaa !14
  %89 = load i64, ptr %8, align 8, !tbaa !14
  %90 = add i64 21, %89
  %91 = icmp ult i64 %88, %90
  br i1 %91, label %92, label %93

92:                                               ; preds = %87
  store i32 0, ptr %5, align 4
  store i32 1, ptr %12, align 4
  br label %104

93:                                               ; preds = %87
  %94 = load i64, ptr %8, align 8, !tbaa !14
  %95 = trunc i64 %94 to i8
  %96 = load ptr, ptr %9, align 8, !tbaa !63
  %97 = getelementptr inbounds nuw %struct.quic_conn_id_st, ptr %96, i32 0, i32 0
  store i8 %95, ptr %97, align 1, !tbaa !65
  %98 = load ptr, ptr %9, align 8, !tbaa !63
  %99 = getelementptr inbounds nuw %struct.quic_conn_id_st, ptr %98, i32 0, i32 1
  %100 = getelementptr inbounds [20 x i8], ptr %99, i64 0, i64 0
  %101 = load ptr, ptr %6, align 8, !tbaa !10
  %102 = getelementptr inbounds i8, ptr %101, i64 1
  %103 = load i64, ptr %8, align 8, !tbaa !14
  call void @llvm.memcpy.p0.p0.i64(ptr align 1 %100, ptr align 1 %102, i64 %103, i1 false)
  store i32 1, ptr %5, align 4
  store i32 1, ptr %12, align 4
  br label %104

104:                                              ; preds = %93, %92, %86, %70, %69, %56, %18
  call void @llvm.lifetime.end.p0(i64 8, ptr %11) #7
  call void @llvm.lifetime.end.p0(i64 1, ptr %10) #7
  %105 = load i32, ptr %5, align 4
  ret i32 %105
}