; Function Attrs: mustprogress nofree norecurse nosync nounwind willreturn memory(argmem: readwrite) uwtable
define range(i32 0, 2) i32 @ossl_quic_wire_get_pkt_hdr_dst_conn_id(ptr noundef readonly captures(none) %0, i64 noundef %1, i64 noundef %2, ptr noundef writeonly captures(none) %3) local_unnamed_addr #6 {
  %5 = icmp ult i64 %1, 7
  %6 = icmp ugt i64 %2, 20
  %or.cond = or i1 %5, %6
  br i1 %or.cond, label %39, label %7

7:                                                ; preds = %4
  %8 = load i8, ptr %0, align 1, !tbaa !23
  %.not = icmp sgt i8 %8, -1
  br i1 %.not, label %31, label %9

9:                                                ; preds = %7
  %10 = getelementptr inbounds nuw i8, ptr %0, i64 1
  %11 = load i8, ptr %10, align 1, !tbaa !23
  %.not30 = icmp eq i8 %11, 0
  br i1 %.not30, label %12, label %23

12:                                               ; preds = %9
  %13 = getelementptr inbounds nuw i8, ptr %0, i64 2
  %14 = load i8, ptr %13, align 1, !tbaa !23
  %.not31 = icmp eq i8 %14, 0
  br i1 %.not31, label %15, label %23

15:                                               ; preds = %12
  %16 = getelementptr inbounds nuw i8, ptr %0, i64 3
  %17 = load i8, ptr %16, align 1, !tbaa !23
  %.not32 = icmp eq i8 %17, 0
  br i1 %.not32, label %18, label %23

18:                                               ; preds = %15
  %19 = getelementptr inbounds nuw i8, ptr %0, i64 4
  %20 = load i8, ptr %19, align 1, !tbaa !23
  %.not33 = icmp ne i8 %20, 0
  %21 = and i8 %8, 64
  %22 = icmp eq i8 %21, 0
  %or.cond35 = and i1 %22, %.not33
  br i1 %or.cond35, label %39, label %24

23:                                               ; preds = %15, %12, %9
  %.old = and i8 %8, 64
  %.old34 = icmp eq i8 %.old, 0
  br i1 %.old34, label %39, label %24

24:                                               ; preds = %23, %18
  %25 = getelementptr inbounds nuw i8, ptr %0, i64 5
  %26 = load i8, ptr %25, align 1, !tbaa !23
  %27 = zext i8 %26 to i64
  %28 = icmp ugt i8 %26, 20
  %29 = add nuw nsw i64 %27, 7
  %30 = icmp ult i64 %1, %29
  %or.cond38 = select i1 %28, i1 true, i1 %30
  br i1 %or.cond38, label %39, label %.sink.split

31:                                               ; preds = %7
  %32 = icmp samesign ult i8 %8, 64
  %33 = add nuw nsw i64 %2, 21
  %34 = icmp ult i64 %1, %33
  %or.cond41 = select i1 %32, i1 true, i1 %34
  br i1 %or.cond41, label %39, label %35

35:                                               ; preds = %31
  %36 = trunc nuw nsw i64 %2 to i8
  br label %.sink.split

.sink.split:                                      ; preds = %24, %35
  %.sink = phi i8 [ %36, %35 ], [ %26, %24 ]
  %.sink44 = phi i64 [ 1, %35 ], [ 6, %24 ]
  %.sink43 = phi i64 [ %2, %35 ], [ %27, %24 ]
  store i8 %.sink, ptr %3, align 1, !tbaa !47
  %37 = getelementptr inbounds nuw i8, ptr %3, i64 1
  %38 = getelementptr inbounds nuw i8, ptr %0, i64 %.sink44
  tail call void @llvm.memcpy.p0.p0.i64(ptr nonnull align 1 %37, ptr nonnull align 1 %38, i64 %.sink43, i1 false)
  br label %39

39:                                               ; preds = %.sink.split, %31, %24, %23, %18, %4
  %.0 = phi i32 [ 0, %4 ], [ 0, %18 ], [ 0, %23 ], [ 0, %24 ], [ 0, %31 ], [ 1, %.sink.split ]
  ret i32 %.0
}